; Function Attrs: mustprogress nounwind uwtable
define dso_local void @_ZN18DFSRndNumGeneratorD2Ev(ptr noundef nonnull align 8 dereferenceable(96) %0) unnamed_addr #7 align 2 personality ptr @__gxx_personality_v0 {
  store ptr getelementptr inbounds ({ [13 x ptr] }, ptr @_ZTV18DFSRndNumGenerator, i64 0, i32 0, i64 2), ptr %0, align 8
  %2 = getelementptr inbounds i8, ptr %0, i64 72
  %3 = load ptr, ptr %2, align 8
  %4 = getelementptr inbounds i8, ptr %0, i64 80
  %5 = load ptr, ptr %4, align 8
  %.not5 = icmp eq ptr %3, %5
  br i1 %.not5, label %_ZNSt6vectorIPN18DFSRndNumGenerator11SearchStateESaIS2_EE5clearEv.exit, label %.lr.ph

.lr.ph:                                           ; preds = %1, %10
  %6 = phi ptr [ %11, %10 ], [ %5, %1 ]
  %.sroa.01.06 = phi ptr [ %12, %10 ], [ %3, %1 ]
  %7 = load ptr, ptr %.sroa.01.06, align 8
  %8 = icmp eq ptr %7, null
  br i1 %8, label %10, label %9

9:                                                ; preds = %.lr.ph
  tail call void @_ZdlPv(ptr noundef nonnull %7) #19
  %.pre = load ptr, ptr %4, align 8
  br label %10

10:                                               ; preds = %.lr.ph, %9
  %11 = phi ptr [ %6, %.lr.ph ], [ %.pre, %9 ]
  %12 = getelementptr inbounds i8, ptr %.sroa.01.06, i64 8
  %.not = icmp eq ptr %12, %11
  br i1 %.not, label %._crit_edge, label %.lr.ph, !llvm.loop !7

._crit_edge:                                      ; preds = %10
  %.pre8 = load ptr, ptr %2, align 8
  %.not.i.i = icmp eq ptr %11, %.pre8
  br i1 %.not.i.i, label %_ZNSt6vectorIPN18DFSRndNumGenerator11SearchStateESaIS2_EE5clearEv.exit, label %13

13:                                               ; preds = %._crit_edge
  store ptr %.pre8, ptr %4, align 8
  br label %_ZNSt6vectorIPN18DFSRndNumGenerator11SearchStateESaIS2_EE5clearEv.exit

_ZNSt6vectorIPN18DFSRndNumGenerator11SearchStateESaIS2_EE5clearEv.exit: ; preds = %1, %._crit_edge, %13
  invoke void @_ZN15SequenceFactory17destroy_sequencesEv()
          to label %14 unwind label %18

14:                                               ; preds = %_ZNSt6vectorIPN18DFSRndNumGenerator11SearchStateESaIS2_EE5clearEv.exit
  %15 = load ptr, ptr %2, align 8
  %.not.i.i.i = icmp eq ptr %15, null
  br i1 %.not.i.i.i, label %_ZNSt6vectorIPN18DFSRndNumGenerator11SearchStateESaIS2_EED2Ev.exit, label %16

16:                                               ; preds = %14
  tail call void @_ZdlPv(ptr noundef nonnull %15) #19
  br label %_ZNSt6vectorIPN18DFSRndNumGenerator11SearchStateESaIS2_EED2Ev.exit

_ZNSt6vectorIPN18DFSRndNumGenerator11SearchStateESaIS2_EED2Ev.exit: ; preds = %14, %16
  %17 = getelementptr inbounds i8, ptr %0, i64 8
  tail call void @_ZNSt7__cxx1112basic_stringIcSt11char_traitsIcESaIcEED1Ev(ptr noundef nonnull align 8 dereferenceable(32) %17) #18
  tail call void @_ZN18AbsRndNumGeneratorD2Ev(ptr noundef nonnull align 8 dereferenceable(8) %0) #18
  ret void

18:                                               ; preds = %_ZNSt6vectorIPN18DFSRndNumGenerator11SearchStateESaIS2_EE5clearEv.exit
  %19 = landingpad { ptr, i32 }
          catch ptr null
  %20 = extractvalue { ptr, i32 } %19, 0
  tail call void @__clang_call_terminate(ptr %20) #22
  unreachable
}